; Function Attrs: nounwind uwtable
define range(i32 -173, 1) i32 @wc_AesDelete(ptr noundef %0, ptr noundef writeonly captures(address_is_null) %1) local_unnamed_addr #7 {
  %3 = icmp eq ptr %0, null
  br i1 %3, label %18, label %4

4:                                                ; preds = %2
  %5 = ptrtoint ptr %0 to i64
  %6 = trunc i64 %5 to i32
  %7 = sub i32 0, %6
  %8 = and i32 %7, 7
  %9 = sub nuw nsw i32 848, %8
  %.not24.i.i = icmp eq i32 %8, 0
  br i1 %.not24.i.i, label %.lr.ph29.i.i.preheader, label %.lr.ph.i.i

.lr.ph29.i.i.preheader:                           ; preds = %.lr.ph.i.i, %4
  %.01528.i.i.ph = phi ptr [ %0, %4 ], [ %11, %.lr.ph.i.i ]
  br label %.lr.ph29.i.i

.lr.ph.i.i:                                       ; preds = %4, %.lr.ph.i.i
  %.126.i.i = phi i32 [ %10, %.lr.ph.i.i ], [ %8, %4 ]
  %.01625.i.i = phi ptr [ %11, %.lr.ph.i.i ], [ %0, %4 ]
  %10 = add nsw i32 %.126.i.i, -1
  %11 = getelementptr inbounds nuw i8, ptr %.01625.i.i, i64 1
  store volatile i8 0, ptr %.01625.i.i, align 1, !tbaa !15
  %.not.i.i = icmp eq i32 %10, 0
  br i1 %.not.i.i, label %.lr.ph29.i.i.preheader, label %.lr.ph.i.i, !llvm.loop !16

.preheader.i.i:                                   ; preds = %.lr.ph29.i.i
  %.not2232.i.i = icmp eq i32 %13, 0
  br i1 %.not2232.i.i, label %wc_AesFree.exit, label %.lr.ph35.i.i

.lr.ph29.i.i:                                     ; preds = %.lr.ph29.i.i.preheader, %.lr.ph29.i.i
  %.01528.i.i = phi ptr [ %12, %.lr.ph29.i.i ], [ %.01528.i.i.ph, %.lr.ph29.i.i.preheader ]
  %.01827.i.i = phi i32 [ %13, %.lr.ph29.i.i ], [ %9, %.lr.ph29.i.i.preheader ]
  %12 = getelementptr inbounds nuw i8, ptr %.01528.i.i, i64 8
  store volatile i64 0, ptr %.01528.i.i, align 8, !tbaa !21
  %13 = add nsw i32 %.01827.i.i, -8
  %14 = icmp ugt i32 %13, 7
  br i1 %14, label %.lr.ph29.i.i, label %.preheader.i.i, !llvm.loop !44

.lr.ph35.i.i:                                     ; preds = %.preheader.i.i, %.lr.ph35.i.i
  %.11734.i.i = phi ptr [ %16, %.lr.ph35.i.i ], [ %12, %.preheader.i.i ]
  %.11933.i.i = phi i32 [ %15, %.lr.ph35.i.i ], [ %13, %.preheader.i.i ]
  %15 = add i32 %.11933.i.i, -1
  %16 = getelementptr inbounds nuw i8, ptr %.11734.i.i, i64 1
  store volatile i8 0, ptr %.11734.i.i, align 1, !tbaa !15
  %.not22.i.i = icmp eq i32 %15, 0
  br i1 %.not22.i.i, label %wc_AesFree.exit, label %.lr.ph35.i.i, !llvm.loop !17

wc_AesFree.exit:                                  ; preds = %.lr.ph35.i.i, %.preheader.i.i
  tail call void @wolfSSL_Free(ptr noundef nonnull %0) #12
  %.not = icmp eq ptr %1, null
  br i1 %.not, label %18, label %17

17:                                               ; preds = %wc_AesFree.exit
  store ptr null, ptr %1, align 8, !tbaa !46
  br label %18

18:                                               ; preds = %wc_AesFree.exit, %17, %2
  %.0 = phi i32 [ -173, %2 ], [ 0, %17 ], [ 0, %wc_AesFree.exit ]
  ret i32 %.0
}